ccopy_reg
_reconstructor
p0
(crequests.cookies
RequestsCookieJar
p1
c__builtin__
object
p2
Ntp3
Rp4
(dp5
S'_now'
p6
I1575252687
sS'_policy'
p7
(icookielib
DefaultCookiePolicy
p8
(dp9
S'strict_rfc2965_unverifiable'
p10
I01
sS'strict_ns_domain'
p11
I0
sS'_allowed_domains'
p12
NsS'rfc2109_as_netscape'
p13
NsS'rfc2965'
p14
I00
sS'strict_domain'
p15
I00
sg6
I1575252687
sS'strict_ns_set_path'
p16
I00
sS'strict_ns_unverifiable'
p17
I00
sS'strict_ns_set_initial_dollar'
p18
I00
sS'hide_cookie2'
p19
I00
sS'_blocked_domains'
p20
(tsS'netscape'
p21
I01
sbsS'_cookies'
p22
(dp23
S'www.united.com'
p24
(dp25
S'/'
p26
(dp27
S'akavpau_ualwww'
p28
(icookielib
Cookie
p29
(dp30
S'comment'
p31
NsS'domain'
p32
g24
sS'name'
p33
g28
sS'domain_initial_dot'
p34
I00
sS'expires'
p35
NsS'value'
p36
S'1575253289~id=48d6900b3b9609a28bb582c07e768d9b'
p37
sS'domain_specified'
p38
I00
sS'_rest'
p39
(dp40
sS'version'
p41
I0
sS'port_specified'
p42
I00
sS'rfc2109'
p43
I00
sS'discard'
p44
I01
sS'path_specified'
p45
I01
sS'path'
p46
g26
sS'port'
p47
NsS'comment_url'
p48
NsS'secure'
p49
I00
sbsssS'.united.com'
p50
(dp51
g26
(dp52
S'bm_sz'
p53
(icookielib
Cookie
p54
(dp55
g31
Nsg32
S'.united.com'
p56
sg33
g53
sg34
I01
sg35
I1575267087
sg36
S'79668569E1AB1A1AC9C9153E5B03E693~YAAQT5bfF+ACInNuAQAAr4NgxAXHhMjALgpfif/vw6xRmVbAhVUCRqCxvTbZM9twWn9ZpMN9kjKvefc+qatQg4HTpXqGiQteslQbvTauKEMKvT0yZt0Z7zvT56VLgHGlFwsGaJdGkN2IpoazydJPEFoVNETrPUuw9WB+6WitNzu6ssj5JPW5kRTa/SbUbX0a'
p57
sg38
I01
sg39
(dp58
S'HttpOnly'
p59
Nssg41
I0
sg42
I00
sg43
I00
sg44
I00
sg45
I01
sg46
g26
sg47
Nsg48
Nsg49
I00
sbsS'_abck'
p60
(icookielib
Cookie
p61
(dp62
g31
Nsg32
S'.united.com'
p63
sg33
g60
sg34
I01
sg35
I1606788687
sg36
S'13DDA54866CC765A7FBD0EFD2FBE3F17~-1~YAAQT5bfF+ECInNuAQAAr4NgxAILAuN2mManYQml7bTHa/lI1tfwXFOk6bMw39E4vxSjmQqo9GKUq0TTqbVCACzf99CSQ4ufoegpalTMDU3Z7DAeKF5AACkjckis4fhkyZKUaa9EUH2JC4ZSv1yZahIr2rxKmGhJaTlod7uT1rdzx49geKuxwC7PLxdXMkxeDDSqmythBkV3/avmBJdcMVaDUaRuthBKwkKlqVQMGM27KbtDAUEvanYnL+oRGrBsYxupzJn0Offs1qdWrMacu6JHSVUmOXz8crKvv+XpnT/XV4ds5/aw66Hp~-1~-1~-1'
p64
sg38
I01
sg39
(dp65
sg41
I0
sg42
I00
sg43
I00
sg44
I00
sg45
I01
sg46
g26
sg47
Nsg48
Nsg49
I01
sbsS'newHP'
p66
(icookielib
Cookie
p67
(dp68
g31
Nsg32
g50
sg33
g66
sg34
I01
sg35
I1606788689
sg36
S'true'
p69
sg38
I01
sg39
(dp70
sg41
I0
sg42
I00
sg43
I00
sg44
I00
sg45
I01
sg46
g26
sg47
Nsg48
Nsg49
I00
sbssssb.